target datalayout = "e-m:e-p270:32:32-p271:32:32-p272:64:64-i64:64-i128:128-f80:128-n8:16:32:64-S128"
target triple = "x86_64-pc-linux-gnu"

%struct.SyncQueue = type { i32, ptr, i32, i32, i32, i64, ptr, i32, i32, i64 }

; Function Attrs: nounwind uwtable
define ptr @sq_alloc(i32 noundef %0, i64 noundef %1, ptr noundef %2) #0 {
  %4 = alloca ptr, align 8
  %5 = alloca i32, align 4
  %6 = alloca i64, align 8
  %7 = alloca ptr, align 8
  %8 = alloca ptr, align 8
  %9 = alloca i32, align 4
  store i32 %0, ptr %5, align 4, !tbaa !9
  store i64 %1, ptr %6, align 8, !tbaa !35
  store ptr %2, ptr %7, align 8, !tbaa !71
  call void @llvm.lifetime.start.p0(i64 8, ptr %8) #8
  %10 = call noalias ptr @av_mallocz(i64 noundef 64)
  store ptr %10, ptr %8, align 8, !tbaa !4
  %11 = load ptr, ptr %8, align 8, !tbaa !4
  %12 = icmp ne ptr %11, null
  br i1 %12, label %14, label %13

13:                                               ; preds = %3
  store ptr null, ptr %4, align 8
  store i32 1, ptr %9, align 4
  br label %29

14:                                               ; preds = %3
  %15 = load i32, ptr %5, align 4, !tbaa !9
  %16 = load ptr, ptr %8, align 8, !tbaa !4
  %17 = getelementptr inbounds nuw %struct.SyncQueue, ptr %16, i32 0, i32 0
  store i32 %15, ptr %17, align 8, !tbaa !37
  %18 = load i64, ptr %6, align 8, !tbaa !35
  %19 = load ptr, ptr %8, align 8, !tbaa !4
  %20 = getelementptr inbounds nuw %struct.SyncQueue, ptr %19, i32 0, i32 5
  store i64 %18, ptr %20, align 8, !tbaa !67
  %21 = load ptr, ptr %7, align 8, !tbaa !71
  %22 = load ptr, ptr %8, align 8, !tbaa !4
  %23 = getelementptr inbounds nuw %struct.SyncQueue, ptr %22, i32 0, i32 1
  store ptr %21, ptr %23, align 8, !tbaa !17
  %24 = load ptr, ptr %8, align 8, !tbaa !4
  %25 = getelementptr inbounds nuw %struct.SyncQueue, ptr %24, i32 0, i32 3
  store i32 -1, ptr %25, align 4, !tbaa !63
  %26 = load ptr, ptr %8, align 8, !tbaa !4
  %27 = getelementptr inbounds nuw %struct.SyncQueue, ptr %26, i32 0, i32 4
  store i32 -1, ptr %27, align 8, !tbaa !45
  %28 = load ptr, ptr %8, align 8, !tbaa !4
  store ptr %28, ptr %4, align 8
  store i32 1, ptr %9, align 4
  br label %29

29:                                               ; preds = %14, %13
  call void @llvm.lifetime.end.p0(i64 8, ptr %8) #8
  %30 = load ptr, ptr %4, align 8
  ret ptr %30
}