; Function Attrs: nounwind uwtable
define noalias ptr @sq_alloc(i32 noundef %0, i64 noundef %1, ptr noundef %2) local_unnamed_addr #0 {
  %4 = tail call noalias ptr @av_mallocz(i64 noundef 64) #7
  %.not = icmp eq ptr %4, null
  br i1 %.not, label %10, label %5

5:                                                ; preds = %3
  store i32 %0, ptr %4, align 8, !tbaa !18
  %6 = getelementptr inbounds nuw i8, ptr %4, i64 32
  store i64 %1, ptr %6, align 8, !tbaa !54
  %7 = getelementptr inbounds nuw i8, ptr %4, i64 8
  store ptr %2, ptr %7, align 8, !tbaa !13
  %8 = getelementptr inbounds nuw i8, ptr %4, i64 20
  store i32 -1, ptr %8, align 4, !tbaa !47
  %9 = getelementptr inbounds nuw i8, ptr %4, i64 24
  store i32 -1, ptr %9, align 8, !tbaa !42
  br label %10

10:                                               ; preds = %3, %5
  ret ptr %4
}